; Function Attrs: nofree nounwind memory(readwrite, inaccessiblemem: read) uwtable
define range(i32 0, 2) i32 @strmatch(ptr noundef %0, ptr noundef %1) local_unnamed_addr #0 {
  %3 = alloca %struct.Match_t, align 8
  call void @llvm.lifetime.start.p0(i64 368, ptr nonnull %3)
  %4 = tail call i64 @strlen(ptr noundef nonnull dereferenceable(1) %0) #7
  %5 = getelementptr inbounds i8, ptr %0, i64 %4
  %6 = getelementptr inbounds nuw i8, ptr %3, i64 352
  store ptr %5, ptr %6, align 8
  %7 = getelementptr inbounds nuw i8, ptr %3, i64 336
  %8 = getelementptr inbounds nuw i8, ptr %3, i64 168
  %9 = getelementptr inbounds nuw i8, ptr %3, i64 160
  store ptr null, ptr %7, align 8
  store i32 0, ptr %8, align 8
  store ptr null, ptr %3, align 8
  %10 = call fastcc i32 @grpmatch(ptr noundef %3, i32 noundef 0, ptr noundef nonnull %0, ptr noundef %1, ptr noundef nonnull %5)
  %11 = icmp ne i32 %10, 0
  %12 = load ptr, ptr %7, align 8
  %13 = icmp ne ptr %12, null
  %or.cond.us.i = select i1 %11, i1 true, i1 %13
  %14 = load ptr, ptr %9, align 8
  %15 = icmp eq ptr %14, %5
  %or.cond = select i1 %or.cond.us.i, i1 %15, i1 false
  br i1 %or.cond, label %.split64.us.i, label %strgrpmatch.exit

.split64.us.i:                                    ; preds = %2
  br i1 %11, label %18, label %16

16:                                               ; preds = %.split64.us.i
  %17 = getelementptr inbounds nuw i8, ptr %3, i64 176
  call void @llvm.memcpy.p0.p0.i64(ptr noundef nonnull align 8 dereferenceable(176) %3, ptr noundef nonnull align 8 dereferenceable(176) %17, i64 176, i1 false)
  %.pre = load ptr, ptr %9, align 8
  br label %18

18:                                               ; preds = %16, %.split64.us.i
  %19 = phi ptr [ %.pre, %16 ], [ %14, %.split64.us.i ]
  %.not46.i = icmp eq ptr %19, %5
  %spec.select = zext i1 %.not46.i to i32
  br label %strgrpmatch.exit

strgrpmatch.exit:                                 ; preds = %18, %2
  %.0.i = phi i32 [ 0, %2 ], [ %spec.select, %18 ]
  call void @llvm.lifetime.end.p0(i64 368, ptr nonnull %3)
  ret i32 %.0.i
}